target datalayout = "e-m:e-p270:32:32-p271:32:32-p272:64:64-i64:64-i128:128-f80:128-n8:16:32:64-S128"
target triple = "x86_64-pc-linux-gnu"

%"class.smt::justification.base" = type <{ ptr, i8 }>
%"class.smt::justification" = type <{ ptr, i8, [7 x i8] }>
%"class.smt::unit_resolution_justification" = type { %"class.smt::justification.base", ptr, i32, ptr }

; Function Attrs: mustprogress nounwind uwtable
define linkonce_odr hidden void @_ZN3smt13justificationD2Ev(ptr noundef nonnull align 8 dereferenceable(9) %0) unnamed_addr #4 comdat align 2 {
  %2 = alloca ptr, align 8
  store ptr %0, ptr %2, align 8, !tbaa !18
  ret void
}

; Function Attrs: mustprogress uwtable
define linkonce_odr hidden void @_Z7deallocIN3smt13justificationEEvPT_(ptr noundef %0) #6 comdat {
  %2 = alloca ptr, align 8
  store ptr %0, ptr %2, align 8, !tbaa !18
  %3 = load ptr, ptr %2, align 8, !tbaa !18
  %4 = icmp eq ptr %3, null
  br i1 %4, label %5, label %6

5:                                                ; preds = %1
  br label %12

6:                                                ; preds = %1
  %7 = load ptr, ptr %2, align 8, !tbaa !18
  %8 = load ptr, ptr %7, align 8, !tbaa !34
  %9 = getelementptr inbounds ptr, ptr %8, i64 0
  %10 = load ptr, ptr %9, align 8
  call void %10(ptr noundef nonnull align 8 dereferenceable(9) %7) #3
  %11 = load ptr, ptr %2, align 8, !tbaa !18
  call void @_ZN6memory10deallocateEPv(ptr noundef %11)
  br label %12

12:                                               ; preds = %6, %5
  ret void
}

; Function Attrs: mustprogress uwtable
define linkonce_odr hidden void @_Z13dealloc_svectIN3sat7literalEEvPT_(ptr noundef %0) #6 comdat {
  %2 = alloca ptr, align 8
  store ptr %0, ptr %2, align 8, !tbaa !3
  %3 = load ptr, ptr %2, align 8, !tbaa !3
  %4 = icmp eq ptr %3, null
  br i1 %4, label %5, label %6

5:                                                ; preds = %1
  br label %8

6:                                                ; preds = %1
  %7 = load ptr, ptr %2, align 8, !tbaa !3
  call void @_ZN6memory10deallocateEPv(ptr noundef %7)
  br label %8

8:                                                ; preds = %6, %5
  ret void
}

; Function Attrs: mustprogress nounwind uwtable
define linkonce_odr hidden noundef zeroext i1 @_ZNK3smt13justification9in_regionEv(ptr noundef nonnull align 8 dereferenceable(9) %0) #4 comdat align 2 {
  %2 = alloca ptr, align 8
  store ptr %0, ptr %2, align 8, !tbaa !18
  %3 = load ptr, ptr %2, align 8
  %4 = getelementptr inbounds nuw %"class.smt::justification", ptr %3, i32 0, i32 1
  %5 = load i8, ptr %4, align 8
  %6 = lshr i8 %5, 1
  %7 = and i8 %6, 1
  %8 = zext i8 %7 to i32
  %9 = icmp ne i32 %8, 0
  ret i1 %9
}

; Function Attrs: mustprogress nounwind uwtable
define hidden void @_ZN3smt29unit_resolution_justificationD2Ev(ptr noundef nonnull align 8 dereferenceable(40) %0) unnamed_addr #4 align 2 personality ptr @__gxx_personality_v0 {
  %2 = alloca ptr, align 8
  store ptr %0, ptr %2, align 8, !tbaa !534
  %3 = load ptr, ptr %2, align 8
  store ptr getelementptr inbounds inrange(-16, 72) ({ [11 x ptr] }, ptr @_ZTVN3smt29unit_resolution_justificationE, i32 0, i32 0, i32 2), ptr %3, align 8, !tbaa !34
  %4 = invoke noundef zeroext i1 @_ZNK3smt13justification9in_regionEv(ptr noundef nonnull align 8 dereferenceable(9) %3)
          to label %5 unwind label %14

5:                                                ; preds = %1
  br i1 %4, label %13, label %6

6:                                                ; preds = %5
  %7 = getelementptr inbounds nuw %"class.smt::unit_resolution_justification", ptr %3, i32 0, i32 3
  %8 = load ptr, ptr %7, align 8, !tbaa !540
  invoke void @_Z13dealloc_svectIN3sat7literalEEvPT_(ptr noundef %8)
          to label %9 unwind label %14

9:                                                ; preds = %6
  %10 = getelementptr inbounds nuw %"class.smt::unit_resolution_justification", ptr %3, i32 0, i32 1
  %11 = load ptr, ptr %10, align 8, !tbaa !536
  invoke void @_Z7deallocIN3smt13justificationEEvPT_(ptr noundef %11)
          to label %12 unwind label %14

12:                                               ; preds = %9
  br label %13

13:                                               ; preds = %12, %5
  call void @_ZN3smt13justificationD2Ev(ptr noundef nonnull align 8 dereferenceable(9) %3) #3
  ret void

14:                                               ; preds = %9, %6, %1
  %15 = landingpad { ptr, i32 }
          catch ptr null
  %16 = extractvalue { ptr, i32 } %15, 0
  call void @__clang_call_terminate(ptr %16) #20
  unreachable
}