; Function Attrs: mustprogress nounwind uwtable
define hidden void @_ZN3smt29unit_resolution_justificationD2Ev(ptr noundef nonnull align 8 captures(none) dereferenceable(40) initializes((0, 8)) %0) unnamed_addr #8 align 2 personality ptr @__gxx_personality_v0 {
  store ptr getelementptr inbounds nuw inrange(-16, 72) (i8, ptr @_ZTVN3smt29unit_resolution_justificationE, i64 16), ptr %0, align 8, !tbaa !3
  %2 = getelementptr inbounds nuw i8, ptr %0, i64 8
  %3 = load i8, ptr %2, align 8
  %4 = and i8 %3, 2
  %.not = icmp eq i8 %4, 0
  br i1 %.not, label %5, label %_Z7deallocIN3smt13justificationEEvPT_.exit

5:                                                ; preds = %1
  %6 = getelementptr inbounds nuw i8, ptr %0, i64 32
  %7 = load ptr, ptr %6, align 8, !tbaa !22
  %8 = icmp eq ptr %7, null
  br i1 %8, label %_Z13dealloc_svectIN3sat7literalEEvPT_.exit, label %9

9:                                                ; preds = %5
  invoke void @_ZN6memory10deallocateEPv(ptr noundef nonnull %7)
          to label %_Z13dealloc_svectIN3sat7literalEEvPT_.exit unwind label %16

_Z13dealloc_svectIN3sat7literalEEvPT_.exit:       ; preds = %5, %9
  %10 = getelementptr inbounds nuw i8, ptr %0, i64 16
  %11 = load ptr, ptr %10, align 8, !tbaa !15
  %12 = icmp eq ptr %11, null
  br i1 %12, label %_Z7deallocIN3smt13justificationEEvPT_.exit, label %13

13:                                               ; preds = %_Z13dealloc_svectIN3sat7literalEEvPT_.exit
  %14 = load ptr, ptr %11, align 8, !tbaa !3
  %15 = load ptr, ptr %14, align 8
  tail call void %15(ptr noundef nonnull align 8 dereferenceable(9) %11) #22
  invoke void @_ZN6memory10deallocateEPv(ptr noundef nonnull %11)
          to label %_Z7deallocIN3smt13justificationEEvPT_.exit unwind label %16

_Z7deallocIN3smt13justificationEEvPT_.exit:       ; preds = %_Z13dealloc_svectIN3sat7literalEEvPT_.exit, %13, %1
  ret void

16:                                               ; preds = %13, %9
  %17 = landingpad { ptr, i32 }
          catch ptr null
  %18 = extractvalue { ptr, i32 } %17, 0
  tail call void @__clang_call_terminate(ptr %18) #23
  unreachable
}